; Function Attrs: mustprogress uwtable
define hidden noundef zeroext i1 @_ZN4cvc58internal6theory4sets18TheorySetsRewriter23checkConstantMembershipENS0_12NodeTemplateILb0EEES5_(ptr noundef nonnull readnone align 8 captures(none) dereferenceable(66) %0, ptr noundef readonly captures(none) %1, ptr noundef readonly captures(none) %2) local_unnamed_addr #3 align 2 personality ptr @__gxx_personality_v0 {
  %4 = alloca %"class.cvc5::internal::NodeTemplate.73", align 8
  %5 = alloca %"class.cvc5::internal::NodeTemplate.73", align 8
  %6 = load ptr, ptr %2, align 8, !tbaa !55
  %7 = getelementptr inbounds nuw i8, ptr %6, i64 8
  %8 = load i64, ptr %7, align 8
  %9 = trunc i64 %8 to i32
  %10 = and i32 %9, 1023
  switch i32 %10, label %20 [
    i32 252, label %.critedge
    i32 259, label %11
  ]

11:                                               ; preds = %3
  %12 = tail call noundef i32 @_ZN4cvc58internal4kind10metaKindOfENS1_6Kind_tE(i32 noundef 259), !noalias !140
  %13 = icmp eq i32 %12, 2
  %14 = getelementptr inbounds nuw i8, ptr %6, i64 24
  %15 = zext i1 %13 to i64
  %16 = getelementptr inbounds nuw [0 x ptr], ptr %14, i64 0, i64 %15
  %17 = load ptr, ptr %16, align 8, !tbaa !36, !noalias !140
  %18 = load ptr, ptr %1, align 8, !tbaa !55
  %19 = icmp eq ptr %18, %17
  br label %.critedge

20:                                               ; preds = %3
  %21 = icmp eq i32 %10, 1023
  %22 = select i1 %21, i32 -1, i32 %10
  %23 = tail call noundef i32 @_ZN4cvc58internal4kind10metaKindOfENS1_6Kind_tE(i32 noundef %22), !noalias !143
  %24 = icmp eq i32 %23, 2
  %25 = getelementptr inbounds nuw i8, ptr %6, i64 24
  %26 = zext i1 %24 to i64
  %27 = getelementptr inbounds nuw [0 x ptr], ptr %25, i64 0, i64 %26
  %28 = load ptr, ptr %27, align 8, !tbaa !36, !noalias !143
  %29 = getelementptr inbounds nuw i8, ptr %28, i64 8
  %30 = load i64, ptr %29, align 8, !noalias !146
  %31 = trunc i64 %30 to i32
  %32 = and i32 %31, 1023
  %33 = icmp eq i32 %32, 1023
  %34 = select i1 %33, i32 -1, i32 %32
  %35 = tail call noundef i32 @_ZN4cvc58internal4kind10metaKindOfENS1_6Kind_tE(i32 noundef %34)
  %36 = icmp eq i32 %35, 2
  %37 = getelementptr inbounds nuw i8, ptr %28, i64 24
  %38 = zext i1 %36 to i64
  %39 = getelementptr inbounds nuw [0 x ptr], ptr %37, i64 0, i64 %38
  %40 = load ptr, ptr %39, align 8, !tbaa !36, !noalias !146
  %41 = load ptr, ptr %1, align 8, !tbaa !55
  %42 = icmp eq ptr %41, %40
  br i1 %42, label %.critedge, label %43

43:                                               ; preds = %20
  store ptr %41, ptr %4, align 8, !tbaa !55
  tail call void @llvm.experimental.noalias.scope.decl(metadata !149)
  %44 = load ptr, ptr %2, align 8, !tbaa !55, !noalias !149
  %45 = getelementptr inbounds nuw i8, ptr %44, i64 8
  %46 = load i64, ptr %45, align 8, !noalias !149
  %47 = trunc i64 %46 to i32
  %48 = and i32 %47, 1023
  %49 = icmp eq i32 %48, 1023
  %50 = select i1 %49, i32 -1, i32 %48
  %51 = tail call noundef i32 @_ZN4cvc58internal4kind10metaKindOfENS1_6Kind_tE(i32 noundef %50)
  %52 = icmp eq i32 %51, 2
  %spec.select.i.i = select i1 %52, i64 2, i64 1
  %53 = getelementptr inbounds nuw i8, ptr %44, i64 24
  %54 = getelementptr inbounds nuw [0 x ptr], ptr %53, i64 0, i64 %spec.select.i.i
  %55 = load ptr, ptr %54, align 8, !tbaa !36, !noalias !149
  store ptr %55, ptr %5, align 8, !tbaa !55, !alias.scope !149
  %56 = call noundef zeroext i1 @_ZN4cvc58internal6theory4sets18TheorySetsRewriter23checkConstantMembershipENS0_12NodeTemplateILb0EEES5_(ptr noundef nonnull align 8 dereferenceable(66) %0, ptr noundef nonnull %4, ptr noundef nonnull %5)
  br label %.critedge

.critedge:                                        ; preds = %43, %3, %20, %11
  %.011 = phi i1 [ %19, %11 ], [ false, %3 ], [ %56, %43 ], [ true, %20 ]
  ret i1 %.011
}